Certificate:
    Data:
        Version: 3 (0x2)
        Serial Number: 234048 (0x39240)
        Signature Algorithm: sha256WithRSAEncryption
        Issuer: CN = Ruby Driver CA, OU = Drivers, O = MongoDB, L = New York City, ST = New York, C = US
        Validity
            Not Before: May 28 21:11:38 2019 GMT
            Not After : May 28 21:11:38 2039 GMT
        Subject: CN = intermediate-client, OU = Kernel, O = MongoDB, L = New York City, ST = New York, C = US
        Subject Public Key Info:
            Public Key Algorithm: rsaEncryption
                RSA Public-Key: (2048 bit)
                Modulus:
                    00:b5:08:90:45:0d:d1:18:34:c4:1b:76:6f:59:9f:
                    22:71:88:48:74:a6:3e:96:5e:81:5f:a2:52:88:b8:
                    ce:9b:86:a9:24:5a:39:4e:79:50:37:de:72:c0:3b:
                    16:72:d0:6c:c9:b0:73:0c:05:67:e8:8a:9e:57:8c:
                    89:25:33:56:1f:29:2a:2d:20:a8:2c:a2:b6:eb:0a:
                    8c:07:30:da:ab:e9:87:e0:68:1a:12:db:db:6a:54:
                    ed:bf:31:c8:37:03:74:63:54:f7:b3:e1:0f:db:eb:
                    97:dd:bd:77:b4:23:08:b3:97:fe:7a:5e:ec:f7:54:
                    ba:18:3d:47:6d:5d:cd:fe:32:7d:b9:92:4a:b3:32:
                    2b:0a:2e:fd:92:6e:f2:e0:d0:92:32:5b:7f:23:9e:
                    2e:47:2e:6d:6b:9f:79:eb:0b:d1:42:de:8a:f8:3e:
                    ae:bc:39:fa:ab:bb:0e:83:ab:77:27:de:1d:97:90:
                    52:4c:62:de:53:67:a7:25:37:40:73:bf:9e:a3:60:
                    23:6c:13:bd:46:a4:9e:b8:bb:32:59:ab:3e:e7:16:
                    71:cd:bc:f1:6d:48:f7:36:c5:34:13:3f:ed:7c:c6:
                    8d:ca:ce:93:a1:4f:d2:3e:94:61:fb:01:10:d0:e9:
                    de:01:0a:55:bd:5b:05:ca:b8:c1:2f:60:97:fe:da:
                    63:cf
                Exponent: 65537 (0x10001)
        X509v3 extensions:
            X509v3 Key Usage: 
                Certificate Sign
    Signature Algorithm: sha256WithRSAEncryption
         1a:b0:96:9b:d5:f4:50:47:79:c9:24:c4:75:b5:82:bc:b0:55:
         bb:9a:6e:76:82:13:79:1d:11:e2:d9:9d:9c:46:72:40:82:4d:
         5f:a0:20:76:58:e7:93:46:20:58:49:af:e1:d8:13:f3:9d:5b:
         0c:66:ac:ad:ca:88:ed:ea:ef:f7:89:0e:e3:76:3d:05:6b:fa:
         88:5b:a4:cc:45:98:1b:20:7c:6a:27:0b:fe:b5:0f:16:2f:df:
         81:f9:03:6d:f3:d0:23:b0:84:72:c8:b4:9b:5c:5d:de:eb:42:
         67:06:fc:39:dc:5f:9f:76:8e:33:dc:51:cb:39:44:a2:a6:d2:
         bb:b6:97:f9:c7:d3:59:99:5a:ce:92:a0:bc:2e:79:d7:9a:a0:
         b2:26:76:98:90:32:28:e9:2d:98:25:98:b8:d4:44:c0:08:30:
         61:a6:be:89:58:52:81:db:8b:ae:bd:14:61:e8:52:19:67:dd:
         e6:a2:42:2f:be:37:3d:f0:d7:49:cf:d8:87:09:ac:16:fc:90:
         7e:cf:1e:f9:a8:60:68:e1:99:20:7a:6e:ce:b4:51:93:64:9b:
         48:af:ff:af:3d:58:43:75:e2:86:9b:1f:c1:dc:3f:94:6d:cf:
         c9:17:74:e7:20:10:da:02:73:eb:6c:74:ca:f4:79:ec:0c:6c:
         63:40:fc:0a
-----BEGIN CERTIFICATE-----
MIIDejCCAmKgAwIBAgIDA5JAMA0GCSqGSIb3DQEBCwUAMHUxFzAVBgNVBAMTDlJ1
YnkgRHJpdmVyIENBMRAwDgYDVQQLEwdEcml2ZXJzMRAwDgYDVQQKEwdNb25nb0RC
MRYwFAYDVQQHEw1OZXcgWW9yayBDaXR5MREwDwYDVQQIEwhOZXcgWW9yazELMAkG
A1UEBhMCVVMwHhcNMTkwNTI4MjExMTM4WhcNMzkwNTI4MjExMTM4WjB5MRwwGgYD
VQQDExNpbnRlcm1lZGlhdGUtY2xpZW50MQ8wDQYDVQQLEwZLZXJuZWwxEDAOBgNV
BAoTB01vbmdvREIxFjAUBgNVBAcTDU5ldyBZb3JrIENpdHkxETAPBgNVBAgTCE5l
dyBZb3JrMQswCQYDVQQGEwJVUzCCASIwDQYJKoZIhvcNAQEBBQADggEPADCCAQoC
ggEBALUIkEUN0Rg0xBt2b1mfInGISHSmPpZegV+iUoi4zpuGqSRaOU55UDfecsA7
FnLQbMmwcwwFZ+iKnleMiSUzVh8pKi0gqCyitusKjAcw2qvph+BoGhLb22pU7b8x
yDcDdGNU97PhD9vrl929d7QjCLOX/npe7PdUuhg9R21dzf4yfbmSSrMyKwou/ZJu
8uDQkjJbfyOeLkcubWufeesL0ULeivg+rrw5+qu7DoOrdyfeHZeQUkxi3lNnpyU3
QHO/nqNgI2wTvUaknri7MlmrPucWcc288W1I9zbFNBM/7XzGjcrOk6FP0j6UYfsB
ENDp3gEKVb1bBcq4wS9gl/7aY88CAwEAAaMPMA0wCwYDVR0PBAQDAgIEMA0GCSqG
SIb3DQEBCwUAA4IBAQAasJab1fRQR3nJJMR1tYK8sFW7mm52ghN5HRHi2Z2cRnJA
gk1foCB2WOeTRiBYSa/h2BPznVsMZqytyojt6u/3iQ7jdj0Fa/qIW6TMRZgbIHxq
Jwv+tQ8WL9+B+QNt89AjsIRyyLSbXF3e60JnBvw53F+fdo4z3FHLOUSiptK7tpf5
x9NZmVrOkqC8LnnXmqCyJnaYkDIo6S2YJZi41ETACDBhpr6JWFKB24uuvRRh6FIZ
Z93mokIvvjc98NdJz9iHCawW/JB+zx75qGBo4Zkgem7OtFGTZJtIr/+vPVhDdeKG
mx/B3D+Ubc/JF3TnIBDaAnPrbHTK9HnsDGxjQPwK
-----END CERTIFICATE-----
