Certificate:
    Data:
        Version: 3 (0x2)
        Serial Number: 135541 (0x21175)
        Signature Algorithm: sha256WithRSAEncryption
        Issuer: CN = intermediate-client, OU = Kernel, O = MongoDB, L = New York City, ST = New York, C = US
        Validity
            Not Before: May 28 21:14:22 2019 GMT
            Not After : May 28 21:14:22 2039 GMT
        Subject: CN = localhost, OU = Kernel, O = MongoDB, L = New York City, ST = New York, C = US
        Subject Public Key Info:
            Public Key Algorithm: rsaEncryption
                RSA Public-Key: (2048 bit)
                Modulus:
                    00:bc:83:4e:53:90:67:b2:79:a5:fb:30:d9:8b:1f:
                    47:71:18:18:76:d7:d4:66:1a:cd:a5:cc:ac:d8:d4:
                    e2:09:56:76:55:36:e8:60:cb:07:50:47:45:63:61:
                    05:df:b4:d7:76:66:d6:81:8c:69:31:bb:6c:89:69:
                    cb:c7:2e:17:2b:4c:03:ca:72:c7:23:ca:00:52:29:
                    3f:fc:15:59:6d:9f:3b:dd:f8:ac:81:38:93:c6:46:
                    da:77:64:72:0a:d1:61:32:10:70:cb:9b:97:c2:60:
                    f4:a9:11:36:56:3a:d2:14:a0:19:aa:6f:81:4b:e7:
                    3b:1e:02:ed:ae:47:0a:ef:24:f8:58:f6:79:31:1c:
                    ff:40:6a:ce:f4:7d:a8:4a:54:18:e0:13:46:c7:eb:
                    35:f4:26:19:0e:3c:56:75:ca:8a:5f:30:80:25:c0:
                    21:21:6f:bb:8a:c1:34:1a:22:27:15:e8:0d:e2:80:
                    05:ba:3b:04:51:da:6b:72:80:96:55:96:cf:98:8a:
                    00:db:ab:9f:59:3c:51:22:b6:91:1f:84:8f:78:1a:
                    00:65:a7:1a:e7:f7:be:40:d1:b6:44:3d:44:08:c9:
                    6b:af:6d:3e:9d:ab:0f:7c:7e:ce:8b:02:9d:53:89:
                    07:d3:84:ba:44:97:6e:bf:57:e7:3e:d4:82:62:cd:
                    ee:07
                Exponent: 65537 (0x10001)
        X509v3 extensions:
            X509v3 Subject Alternative Name: 
                DNS:localhost, IP Address:127.0.0.1
    Signature Algorithm: sha256WithRSAEncryption
         52:c1:f0:4f:fd:9d:d5:a1:90:f0:39:ba:0c:a1:83:03:06:b1:
         db:ab:1e:17:56:33:91:d0:b5:b3:71:09:18:f9:86:09:48:88:
         45:ae:4b:86:4b:20:b2:cf:a6:c4:47:cf:86:c9:d0:76:19:64:
         ce:9b:76:0e:86:d4:03:27:58:f3:9f:d1:fb:5c:68:02:49:63:
         ea:73:57:bf:f9:21:aa:18:40:72:22:6f:8f:f7:34:c9:05:68:
         c1:c4:b3:81:c6:a0:a3:dc:89:6d:93:c3:e4:4c:f3:6e:ce:0b:
         23:39:88:7e:66:c4:26:41:f4:e7:1c:b5:c8:d1:ec:f2:6b:1f:
         bd:93:24:cc:66:40:e5:ef:f8:c7:2d:08:c6:b1:81:3f:f5:da:
         1f:7e:18:bc:2c:a5:a9:00:c0:cf:bf:5c:46:c1:d4:79:18:3b:
         68:ec:6c:ff:f6:4d:68:8a:e3:ba:e8:47:f8:bc:58:9d:b8:b6:
         ac:4f:53:67:97:88:16:d4:da:de:3e:d2:80:1a:55:ae:89:d1:
         1c:b7:fa:59:81:2e:d2:04:73:3d:5c:87:bf:2d:fe:41:b1:07:
         b8:54:80:0e:18:b1:4e:5d:6a:5c:02:62:07:c6:4c:2f:80:7f:
         b4:01:61:b1:79:3e:5a:fb:79:85:f6:fd:59:22:15:27:55:6d:
         5e:91:15:dd
-----BEGIN CERTIFICATE-----
MIIDgzCCAmugAwIBAgIDAhF1MA0GCSqGSIb3DQEBCwUAMHkxHDAaBgNVBAMTE2lu
dGVybWVkaWF0ZS1jbGllbnQxDzANBgNVBAsTBktlcm5lbDEQMA4GA1UEChMHTW9u
Z29EQjEWMBQGA1UEBxMNTmV3IFlvcmsgQ2l0eTERMA8GA1UECBMITmV3IFlvcmsx
CzAJBgNVBAYTAlVTMB4XDTE5MDUyODIxMTQyMloXDTM5MDUyODIxMTQyMlowbzES
MBAGA1UEAxMJbG9jYWxob3N0MQ8wDQYDVQQLEwZLZXJuZWwxEDAOBgNVBAoTB01v
bmdvREIxFjAUBgNVBAcTDU5ldyBZb3JrIENpdHkxETAPBgNVBAgTCE5ldyBZb3Jr
MQswCQYDVQQGEwJVUzCCASIwDQYJKoZIhvcNAQEBBQADggEPADCCAQoCggEBALyD
TlOQZ7J5pfsw2YsfR3EYGHbX1GYazaXMrNjU4glWdlU26GDLB1BHRWNhBd+013Zm
1oGMaTG7bIlpy8cuFytMA8pyxyPKAFIpP/wVWW2fO934rIE4k8ZG2ndkcgrRYTIQ
cMubl8Jg9KkRNlY60hSgGapvgUvnOx4C7a5HCu8k+Fj2eTEc/0BqzvR9qEpUGOAT
RsfrNfQmGQ48VnXKil8wgCXAISFvu4rBNBoiJxXoDeKABbo7BFHaa3KAllWWz5iK
ANurn1k8USK2kR+Ej3gaAGWnGuf3vkDRtkQ9RAjJa69tPp2rD3x+zosCnVOJB9OE
ukSXbr9X5z7UgmLN7gcCAwEAAaMeMBwwGgYDVR0RBBMwEYIJbG9jYWxob3N0hwR/
AAABMA0GCSqGSIb3DQEBCwUAA4IBAQBSwfBP/Z3VoZDwOboMoYMDBrHbqx4XVjOR
0LWzcQkY+YYJSIhFrkuGSyCyz6bER8+GydB2GWTOm3YOhtQDJ1jzn9H7XGgCSWPq
c1e/+SGqGEByIm+P9zTJBWjBxLOBxqCj3Iltk8PkTPNuzgsjOYh+ZsQmQfTnHLXI
0ezyax+9kyTMZkDl7/jHLQjGsYE/9doffhi8LKWpAMDPv1xGwdR5GDto7Gz/9k1o
iuO66Ef4vFiduLasT1Nnl4gW1NrePtKAGlWuidEct/pZgS7SBHM9XIe/Lf5BsQe4
VIAOGLFOXWpcAmIHxkwvgH+0AWGxeT5a+3mF9v1ZIhUnVW1ekRXd
-----END CERTIFICATE-----
-----BEGIN RSA PRIVATE KEY-----
MIIEpQIBAAKCAQEAvINOU5Bnsnml+zDZix9HcRgYdtfUZhrNpcys2NTiCVZ2VTbo
YMsHUEdFY2EF37TXdmbWgYxpMbtsiWnLxy4XK0wDynLHI8oAUik//BVZbZ873fis
gTiTxkbad2RyCtFhMhBwy5uXwmD0qRE2VjrSFKAZqm+BS+c7HgLtrkcK7yT4WPZ5
MRz/QGrO9H2oSlQY4BNGx+s19CYZDjxWdcqKXzCAJcAhIW+7isE0GiInFegN4oAF
ujsEUdprcoCWVZbPmIoA26ufWTxRIraRH4SPeBoAZaca5/e+QNG2RD1ECMlrr20+
nasPfH7OiwKdU4kH04S6RJduv1fnPtSCYs3uBwIDAQABAoIBAQCnXYiH5lg6e4hi
iI9L1hxuiy8FLD+12ywjfKEk7XQ1SB9NLq+HaBn5Kx2uyrAVWhBFXa4qXEf00Grf
YR97mi8V0Ko47khhPPGmAFt/alD4Y3waabJ2E44XZkaF45bghd5ePXx3OI+3Eq+E
/vQYAKcNisrep5rKkePJlF4C8a4CfG5hq/BvY+gk9BgDdpAbskwb5nS/MdoVow8H
2qapLz4e85CCsuw0W6OZ5fafOtp20WWPIISSb0dbpegezYJ1rF6BZQ6Rf2GgTFX3
2wyQoywyoY47iv3OQRdm04HsFc7QDeRMXXKDd6IWwibH958RKD1YFpoEEi9RW74u
bJBNd29BAoGBAPeu3EHTUSdSpeClrpWSDdgaeUZlXJv730O3CXTLUSuoNvxfVEcf
jksbURUf+mutfQRE0CUirBVdzqn7a8zW7qBFNMB3iek5gajlIA+uTchU/euUTiqu
+ZY/mJntssozSao4sbWhTTehWK+oyUX5ygHGRtnVT4w6zRszj8t05yLhAoGBAMLX
zkIj0/MrFnDj58eXwQd20kamkx5no2xhXjVENx8X5xqnpcC6wBo3Gvl9iMmmvud0
NKwToviIKsQouj5H+j52M/nvc0YLvt75BaDlwqa/OjmEBmo6FHpOmiBiGswZ7gec
yGVo4/Dl03kiq34pbTrbL5X4XzyvHA1/neT9gRXnAoGANBYLr7QWvuQ8ie+NtVqP
msCGfG1Yel0PaJgXXv5axYmMdqo9eO+D5vuJo52j9fz362vlMcoG0j919H0xAFS6
ve2P2GHLGMbFI5V7lpCbPuPQujfn8EX3qscY+lXoYWlDto5RoNaY/HfrxJUELrkG
6DSgNbMMFXtQIsZHGQwuh0ECgYEAlRE+gGOg2L3yYVQ8E/wKdod1wQ/YJr7rzROB
XAdglK1Y5o+0xIscRfI69P4SFRU5oSLK2Yv8d2DWN1VhiBzRW9BbW7DS5Jg/459p
qvudvK05Ap/7uHHPEPPp/zSPg++iqLhOqSdinP94l4jq448WPp1K/tYTJv5h3AHy
7yr0A6kCgYEAvL7eYp6h3YzRRKqZ3tVVI6Z1TtlceieKrcEqO0DYaLcabKS/Ub1K
KFypZTCLpXjKxDMp1mf1TjSFZH+6VWuwDKDOH5kl6TlINXwXFBHqzMH3hvXhENGE
SCHnlfsWICrQzJMFCOFJZPIm8PJJC3SJem5O/tZKg6aHce8qTpiNAUA=
-----END RSA PRIVATE KEY-----
Certificate:
    Data:
        Version: 3 (0x2)
        Serial Number: 234048 (0x39240)
        Signature Algorithm: sha256WithRSAEncryption
        Issuer: CN = Ruby Driver CA, OU = Drivers, O = MongoDB, L = New York City, ST = New York, C = US
        Validity
            Not Before: May 28 21:11:38 2019 GMT
            Not After : May 28 21:11:38 2039 GMT
        Subject: CN = intermediate-client, OU = Kernel, O = MongoDB, L = New York City, ST = New York, C = US
        Subject Public Key Info:
            Public Key Algorithm: rsaEncryption
                RSA Public-Key: (2048 bit)
                Modulus:
                    00:b5:08:90:45:0d:d1:18:34:c4:1b:76:6f:59:9f:
                    22:71:88:48:74:a6:3e:96:5e:81:5f:a2:52:88:b8:
                    ce:9b:86:a9:24:5a:39:4e:79:50:37:de:72:c0:3b:
                    16:72:d0:6c:c9:b0:73:0c:05:67:e8:8a:9e:57:8c:
                    89:25:33:56:1f:29:2a:2d:20:a8:2c:a2:b6:eb:0a:
                    8c:07:30:da:ab:e9:87:e0:68:1a:12:db:db:6a:54:
                    ed:bf:31:c8:37:03:74:63:54:f7:b3:e1:0f:db:eb:
                    97:dd:bd:77:b4:23:08:b3:97:fe:7a:5e:ec:f7:54:
                    ba:18:3d:47:6d:5d:cd:fe:32:7d:b9:92:4a:b3:32:
                    2b:0a:2e:fd:92:6e:f2:e0:d0:92:32:5b:7f:23:9e:
                    2e:47:2e:6d:6b:9f:79:eb:0b:d1:42:de:8a:f8:3e:
                    ae:bc:39:fa:ab:bb:0e:83:ab:77:27:de:1d:97:90:
                    52:4c:62:de:53:67:a7:25:37:40:73:bf:9e:a3:60:
                    23:6c:13:bd:46:a4:9e:b8:bb:32:59:ab:3e:e7:16:
                    71:cd:bc:f1:6d:48:f7:36:c5:34:13:3f:ed:7c:c6:
                    8d:ca:ce:93:a1:4f:d2:3e:94:61:fb:01:10:d0:e9:
                    de:01:0a:55:bd:5b:05:ca:b8:c1:2f:60:97:fe:da:
                    63:cf
                Exponent: 65537 (0x10001)
        X509v3 extensions:
            X509v3 Key Usage: 
                Certificate Sign
    Signature Algorithm: sha256WithRSAEncryption
         1a:b0:96:9b:d5:f4:50:47:79:c9:24:c4:75:b5:82:bc:b0:55:
         bb:9a:6e:76:82:13:79:1d:11:e2:d9:9d:9c:46:72:40:82:4d:
         5f:a0:20:76:58:e7:93:46:20:58:49:af:e1:d8:13:f3:9d:5b:
         0c:66:ac:ad:ca:88:ed:ea:ef:f7:89:0e:e3:76:3d:05:6b:fa:
         88:5b:a4:cc:45:98:1b:20:7c:6a:27:0b:fe:b5:0f:16:2f:df:
         81:f9:03:6d:f3:d0:23:b0:84:72:c8:b4:9b:5c:5d:de:eb:42:
         67:06:fc:39:dc:5f:9f:76:8e:33:dc:51:cb:39:44:a2:a6:d2:
         bb:b6:97:f9:c7:d3:59:99:5a:ce:92:a0:bc:2e:79:d7:9a:a0:
         b2:26:76:98:90:32:28:e9:2d:98:25:98:b8:d4:44:c0:08:30:
         61:a6:be:89:58:52:81:db:8b:ae:bd:14:61:e8:52:19:67:dd:
         e6:a2:42:2f:be:37:3d:f0:d7:49:cf:d8:87:09:ac:16:fc:90:
         7e:cf:1e:f9:a8:60:68:e1:99:20:7a:6e:ce:b4:51:93:64:9b:
         48:af:ff:af:3d:58:43:75:e2:86:9b:1f:c1:dc:3f:94:6d:cf:
         c9:17:74:e7:20:10:da:02:73:eb:6c:74:ca:f4:79:ec:0c:6c:
         63:40:fc:0a
-----BEGIN CERTIFICATE-----
MIIDejCCAmKgAwIBAgIDA5JAMA0GCSqGSIb3DQEBCwUAMHUxFzAVBgNVBAMTDlJ1
YnkgRHJpdmVyIENBMRAwDgYDVQQLEwdEcml2ZXJzMRAwDgYDVQQKEwdNb25nb0RC
MRYwFAYDVQQHEw1OZXcgWW9yayBDaXR5MREwDwYDVQQIEwhOZXcgWW9yazELMAkG
A1UEBhMCVVMwHhcNMTkwNTI4MjExMTM4WhcNMzkwNTI4MjExMTM4WjB5MRwwGgYD
VQQDExNpbnRlcm1lZGlhdGUtY2xpZW50MQ8wDQYDVQQLEwZLZXJuZWwxEDAOBgNV
BAoTB01vbmdvREIxFjAUBgNVBAcTDU5ldyBZb3JrIENpdHkxETAPBgNVBAgTCE5l
dyBZb3JrMQswCQYDVQQGEwJVUzCCASIwDQYJKoZIhvcNAQEBBQADggEPADCCAQoC
ggEBALUIkEUN0Rg0xBt2b1mfInGISHSmPpZegV+iUoi4zpuGqSRaOU55UDfecsA7
FnLQbMmwcwwFZ+iKnleMiSUzVh8pKi0gqCyitusKjAcw2qvph+BoGhLb22pU7b8x
yDcDdGNU97PhD9vrl929d7QjCLOX/npe7PdUuhg9R21dzf4yfbmSSrMyKwou/ZJu
8uDQkjJbfyOeLkcubWufeesL0ULeivg+rrw5+qu7DoOrdyfeHZeQUkxi3lNnpyU3
QHO/nqNgI2wTvUaknri7MlmrPucWcc288W1I9zbFNBM/7XzGjcrOk6FP0j6UYfsB
ENDp3gEKVb1bBcq4wS9gl/7aY88CAwEAAaMPMA0wCwYDVR0PBAQDAgIEMA0GCSqG
SIb3DQEBCwUAA4IBAQAasJab1fRQR3nJJMR1tYK8sFW7mm52ghN5HRHi2Z2cRnJA
gk1foCB2WOeTRiBYSa/h2BPznVsMZqytyojt6u/3iQ7jdj0Fa/qIW6TMRZgbIHxq
Jwv+tQ8WL9+B+QNt89AjsIRyyLSbXF3e60JnBvw53F+fdo4z3FHLOUSiptK7tpf5
x9NZmVrOkqC8LnnXmqCyJnaYkDIo6S2YJZi41ETACDBhpr6JWFKB24uuvRRh6FIZ
Z93mokIvvjc98NdJz9iHCawW/JB+zx75qGBo4Zkgem7OtFGTZJtIr/+vPVhDdeKG
mx/B3D+Ubc/JF3TnIBDaAnPrbHTK9HnsDGxjQPwK
-----END CERTIFICATE-----
