Certificate:
    Data:
        Version: 3 (0x2)
        Serial Number: 234048 (0x39240)
        Signature Algorithm: sha256WithRSAEncryption
        Issuer: CN = Ruby Driver CA, OU = Drivers, O = MongoDB, L = New York City, ST = New York, C = US
        Validity
            Not Before: May 28 21:11:38 2019 GMT
            Not After : May 28 21:11:38 2039 GMT
        Subject: CN = intermediate-server, OU = Kernel, O = MongoDB, L = New York City, ST = New York, C = US
        Subject Public Key Info:
            Public Key Algorithm: rsaEncryption
                RSA Public-Key: (2048 bit)
                Modulus:
                    00:94:5c:e6:36:59:7f:7c:46:30:9b:5c:f8:4d:ba:
                    c3:38:ed:28:e5:27:7b:72:bf:45:f9:9d:d3:85:5d:
                    1c:bf:08:62:3c:73:47:0e:06:d7:a1:82:db:7e:19:
                    cb:a9:c3:93:c9:d8:ef:7f:80:f1:26:5b:99:05:c0:
                    55:10:d1:5b:a2:20:0d:60:46:fe:81:b6:dd:dc:b9:
                    28:49:04:a0:9f:6a:ec:21:0d:a9:a3:da:90:45:86:
                    f1:c2:09:62:a2:2b:bb:77:49:a1:c6:04:64:7f:81:
                    6a:6c:b7:4e:37:58:6e:21:53:3b:de:9f:1a:c8:74:
                    9e:2d:30:cb:5a:8b:5d:c0:6e:e7:78:e3:3d:ad:0e:
                    91:52:4c:d7:5b:8a:d1:48:44:b4:fc:65:4b:03:78:
                    50:bc:df:ee:87:1b:f5:46:3b:d4:4f:64:66:c9:59:
                    4e:cf:be:6e:16:d0:b3:de:a4:6d:93:a3:7a:92:0e:
                    3f:89:a0:03:50:e0:43:99:56:2c:5d:a0:06:a6:24:
                    8f:70:9f:64:49:c6:e2:b0:e4:e6:ce:17:d3:e7:22:
                    4d:b4:08:5e:8b:64:17:61:06:cc:42:b7:90:a7:0a:
                    e6:0a:1c:4e:17:3e:15:fa:cd:dc:98:e5:0a:ea:bc:
                    21:9f:07:86:7d:ff:5c:fb:32:db:08:14:6b:a5:ea:
                    7c:af
                Exponent: 65537 (0x10001)
        X509v3 extensions:
            X509v3 Key Usage: 
                Certificate Sign
    Signature Algorithm: sha256WithRSAEncryption
         71:61:fd:87:88:23:29:11:0f:17:f3:94:d6:ae:7d:ce:45:2c:
         a1:60:f6:61:54:56:94:84:11:64:68:b2:76:ea:fc:7b:7a:73:
         44:f1:4f:f2:61:24:a2:e9:0a:24:38:9e:78:31:e6:e3:b8:9c:
         91:35:8f:47:a3:95:7a:96:53:2a:55:67:bf:6a:75:45:be:8a:
         94:69:63:48:47:c6:82:68:f5:ff:3f:80:d1:0d:39:10:fd:e0:
         5d:de:c6:21:66:94:a8:d5:e3:ab:74:f0:03:09:37:09:90:88:
         3f:cf:16:8e:57:4d:de:e9:0d:0d:d9:a6:ea:9a:2a:e3:a4:71:
         f3:c4:d1:9c:17:6a:0f:a2:66:7d:3a:a6:56:8e:5a:d8:8c:cb:
         93:8b:7a:2a:8e:1e:28:ae:e3:e6:27:c6:df:4e:2e:c1:29:92:
         50:06:f4:49:59:58:c5:f8:e1:9c:12:2a:73:f8:07:f4:e1:d1:
         e7:75:a9:a6:7c:7c:a5:00:93:73:58:91:34:ff:6a:2a:91:c2:
         5e:1a:3b:80:9b:ec:5a:7b:5c:60:83:31:dc:df:f8:80:8f:24:
         02:87:0d:4f:6a:de:ac:54:52:b6:c9:68:10:ed:fd:4b:bc:23:
         71:5f:8f:cf:e4:2f:13:35:1a:85:97:84:df:23:39:c0:2b:0d:
         b4:68:e0:39
-----BEGIN CERTIFICATE-----
MIIDejCCAmKgAwIBAgIDA5JAMA0GCSqGSIb3DQEBCwUAMHUxFzAVBgNVBAMTDlJ1
YnkgRHJpdmVyIENBMRAwDgYDVQQLEwdEcml2ZXJzMRAwDgYDVQQKEwdNb25nb0RC
MRYwFAYDVQQHEw1OZXcgWW9yayBDaXR5MREwDwYDVQQIEwhOZXcgWW9yazELMAkG
A1UEBhMCVVMwHhcNMTkwNTI4MjExMTM4WhcNMzkwNTI4MjExMTM4WjB5MRwwGgYD
VQQDExNpbnRlcm1lZGlhdGUtc2VydmVyMQ8wDQYDVQQLEwZLZXJuZWwxEDAOBgNV
BAoTB01vbmdvREIxFjAUBgNVBAcTDU5ldyBZb3JrIENpdHkxETAPBgNVBAgTCE5l
dyBZb3JrMQswCQYDVQQGEwJVUzCCASIwDQYJKoZIhvcNAQEBBQADggEPADCCAQoC
ggEBAJRc5jZZf3xGMJtc+E26wzjtKOUne3K/Rfmd04VdHL8IYjxzRw4G16GC234Z
y6nDk8nY73+A8SZbmQXAVRDRW6IgDWBG/oG23dy5KEkEoJ9q7CENqaPakEWG8cIJ
YqIru3dJocYEZH+Bamy3TjdYbiFTO96fGsh0ni0wy1qLXcBu53jjPa0OkVJM11uK
0UhEtPxlSwN4ULzf7ocb9UY71E9kZslZTs++bhbQs96kbZOjepIOP4mgA1DgQ5lW
LF2gBqYkj3CfZEnG4rDk5s4X0+ciTbQIXotkF2EGzEK3kKcK5gocThc+FfrN3Jjl
Cuq8IZ8Hhn3/XPsy2wgUa6XqfK8CAwEAAaMPMA0wCwYDVR0PBAQDAgIEMA0GCSqG
SIb3DQEBCwUAA4IBAQBxYf2HiCMpEQ8X85TWrn3ORSyhYPZhVFaUhBFkaLJ26vx7
enNE8U/yYSSi6QokOJ54MebjuJyRNY9Ho5V6llMqVWe/anVFvoqUaWNIR8aCaPX/
P4DRDTkQ/eBd3sYhZpSo1eOrdPADCTcJkIg/zxaOV03e6Q0N2abqmirjpHHzxNGc
F2oPomZ9OqZWjlrYjMuTi3oqjh4oruPmJ8bfTi7BKZJQBvRJWVjF+OGcEipz+Af0
4dHndammfHylAJNzWJE0/2oqkcJeGjuAm+xae1xggzHc3/iAjyQChw1Pat6sVFK2
yWgQ7f1LvCNxX4/P5C8TNRqFl4TfIznAKw20aOA5
-----END CERTIFICATE-----
