Certificate:
    Data:
        Version: 3 (0x2)
        Serial Number: 135541 (0x21175)
        Signature Algorithm: sha256WithRSAEncryption
        Issuer: CN = intermediate-server, OU = Kernel, O = MongoDB, L = New York City, ST = New York, C = US
        Validity
            Not Before: May 28 21:14:22 2019 GMT
            Not After : May 28 21:14:22 2039 GMT
        Subject: CN = localhost, OU = Kernel, O = MongoDB, L = New York City, ST = New York, C = US
        Subject Public Key Info:
            Public Key Algorithm: rsaEncryption
                RSA Public-Key: (2048 bit)
                Modulus:
                    00:93:a1:00:99:13:f1:91:04:6a:c6:f0:56:d6:ce:
                    54:6a:92:e7:65:a8:fc:d1:85:4e:24:e8:be:2d:62:
                    a0:b9:d4:33:24:a4:f7:fa:54:41:18:1c:83:55:fa:
                    e2:3b:63:29:8e:34:70:41:de:81:ec:5b:b3:7e:92:
                    95:77:a7:fa:fd:14:15:23:81:35:1d:10:da:58:10:
                    2a:d9:77:1d:58:d1:89:1f:46:ed:0b:18:0d:41:e6:
                    f1:9a:06:5c:9c:e9:eb:6a:f8:cf:e1:29:91:fd:a0:
                    03:40:42:41:86:b1:42:a6:38:33:85:5c:80:b8:13:
                    4c:ea:84:a9:2f:09:61:ca:bf:01:3d:c8:f3:bf:74:
                    bd:d1:4d:70:fe:c6:72:e7:1e:39:7f:17:2d:bd:6a:
                    d7:0f:21:57:52:dc:d1:c2:43:97:ad:14:8f:07:e1:
                    e4:44:94:bf:c5:14:29:76:9b:ff:99:ac:b6:bf:b1:
                    57:b2:df:eb:a4:8d:84:bb:e2:f2:7e:c7:b8:87:31:
                    2a:a8:cf:0d:b2:0e:b0:98:0c:62:21:89:5a:be:ba:
                    53:00:53:c9:4b:29:a9:4e:30:48:56:19:00:7a:43:
                    d9:d9:1a:58:64:d2:29:33:58:d5:f3:a4:26:0b:ff:
                    84:fd:9b:f9:71:30:d1:fb:25:b5:33:7e:c0:11:40:
                    52:a9
                Exponent: 65537 (0x10001)
        X509v3 extensions:
            X509v3 Subject Alternative Name: 
                DNS:localhost, IP Address:127.0.0.1
    Signature Algorithm: sha256WithRSAEncryption
         58:34:a3:64:1f:c4:ea:10:ed:84:c4:85:1e:06:ef:37:ec:ce:
         b2:14:f3:97:f9:f7:04:a9:b1:9c:08:cc:28:50:c6:4c:84:fd:
         cd:5c:8a:fd:30:e7:24:2b:34:37:c4:50:d7:32:c0:7b:8c:4b:
         6f:7d:52:78:68:aa:f7:96:02:1d:84:c1:97:cf:e9:cc:a3:d5:
         ae:e6:bf:95:05:c8:94:5d:5e:31:33:58:4e:c8:c8:ee:07:c9:
         9d:b3:ae:4d:11:48:d9:15:56:0f:81:3a:41:dd:83:13:8e:6e:
         7f:e3:f6:a0:1e:c0:48:38:a1:fe:81:c1:79:e5:48:6c:38:8b:
         69:09:f1:ad:8e:af:ea:ad:68:6f:ab:8d:e4:c0:8d:4d:f7:05:
         a7:b2:86:bf:58:ef:56:db:22:59:a8:1a:cb:33:91:de:57:e6:
         58:af:70:a8:c6:b2:19:c2:be:fb:a6:ca:f5:f3:47:b9:d3:8a:
         59:b1:75:a6:0e:0b:65:8e:da:5b:c3:12:72:58:3e:ef:78:c9:
         3d:98:a6:93:80:b0:c2:80:fd:a7:c1:11:8b:7d:6b:72:dc:78:
         ad:fb:74:85:a1:2c:0a:c8:eb:bb:7b:67:b0:72:b9:2e:8f:cb:
         dc:cc:02:2c:82:c7:b5:47:0f:83:e6:e7:11:e2:da:15:95:cc:
         8b:28:bb:fc
-----BEGIN CERTIFICATE-----
MIIDgzCCAmugAwIBAgIDAhF1MA0GCSqGSIb3DQEBCwUAMHkxHDAaBgNVBAMTE2lu
dGVybWVkaWF0ZS1zZXJ2ZXIxDzANBgNVBAsTBktlcm5lbDEQMA4GA1UEChMHTW9u
Z29EQjEWMBQGA1UEBxMNTmV3IFlvcmsgQ2l0eTERMA8GA1UECBMITmV3IFlvcmsx
CzAJBgNVBAYTAlVTMB4XDTE5MDUyODIxMTQyMloXDTM5MDUyODIxMTQyMlowbzES
MBAGA1UEAxMJbG9jYWxob3N0MQ8wDQYDVQQLEwZLZXJuZWwxEDAOBgNVBAoTB01v
bmdvREIxFjAUBgNVBAcTDU5ldyBZb3JrIENpdHkxETAPBgNVBAgTCE5ldyBZb3Jr
MQswCQYDVQQGEwJVUzCCASIwDQYJKoZIhvcNAQEBBQADggEPADCCAQoCggEBAJOh
AJkT8ZEEasbwVtbOVGqS52Wo/NGFTiTovi1ioLnUMySk9/pUQRgcg1X64jtjKY40
cEHegexbs36SlXen+v0UFSOBNR0Q2lgQKtl3HVjRiR9G7QsYDUHm8ZoGXJzp62r4
z+Epkf2gA0BCQYaxQqY4M4VcgLgTTOqEqS8JYcq/AT3I8790vdFNcP7GcuceOX8X
Lb1q1w8hV1Lc0cJDl60Ujwfh5ESUv8UUKXab/5mstr+xV7Lf66SNhLvi8n7HuIcx
KqjPDbIOsJgMYiGJWr66UwBTyUspqU4wSFYZAHpD2dkaWGTSKTNY1fOkJgv/hP2b
+XEw0fsltTN+wBFAUqkCAwEAAaMeMBwwGgYDVR0RBBMwEYIJbG9jYWxob3N0hwR/
AAABMA0GCSqGSIb3DQEBCwUAA4IBAQBYNKNkH8TqEO2ExIUeBu837M6yFPOX+fcE
qbGcCMwoUMZMhP3NXIr9MOckKzQ3xFDXMsB7jEtvfVJ4aKr3lgIdhMGXz+nMo9Wu
5r+VBciUXV4xM1hOyMjuB8mds65NEUjZFVYPgTpB3YMTjm5/4/agHsBIOKH+gcF5
5UhsOItpCfGtjq/qrWhvq43kwI1N9wWnsoa/WO9W2yJZqBrLM5HeV+ZYr3CoxrIZ
wr77psr180e504pZsXWmDgtljtpbwxJyWD7veMk9mKaTgLDCgP2nwRGLfWty3Hit
+3SFoSwKyOu7e2ewcrkuj8vczAIsgse1Rw+D5ucR4toVlcyLKLv8
-----END CERTIFICATE-----
-----BEGIN RSA PRIVATE KEY-----
MIIEowIBAAKCAQEAk6EAmRPxkQRqxvBW1s5UapLnZaj80YVOJOi+LWKgudQzJKT3
+lRBGByDVfriO2MpjjRwQd6B7FuzfpKVd6f6/RQVI4E1HRDaWBAq2XcdWNGJH0bt
CxgNQebxmgZcnOnravjP4SmR/aADQEJBhrFCpjgzhVyAuBNM6oSpLwlhyr8BPcjz
v3S90U1w/sZy5x45fxctvWrXDyFXUtzRwkOXrRSPB+HkRJS/xRQpdpv/may2v7FX
st/rpI2Eu+Lyfse4hzEqqM8Nsg6wmAxiIYlavrpTAFPJSympTjBIVhkAekPZ2RpY
ZNIpM1jV86QmC/+E/Zv5cTDR+yW1M37AEUBSqQIDAQABAoIBAD/5VTkA233sXBk5
rWgIoaxNXNlBEc355pM4CLHCO8RLoJ4QnyVrvYmlUYTA46i4oBlvv/XLZqH2WyJO
g1cHBE0HluF77HhcBUKEPw1eAOmsY6+aHL7h/VzBp5EHkLqu48XHbM42JX2zCbWf
AKZNyoQddrYkD+O0+W/nbSlk92vUENZOUttlVWgqhG2YR1LpaYdl/Ck1McsqEOFm
rLcqoyipXpkML9+zkHVSt3VRTrAYDrahRfdFGIcAozCLg8UEXsQ/+e7zUrZlLjOf
Cp0KHcPKVO9SHLmFd0sVUDeK1T0xUCpgJW6zMQpOrRm9wlxGLtUOYQQvD1R+DON2
P0asmwECgYEA0Q4QP0XaTlzBXQz+g+DZZ7T4000RWfAoOHVLlmFN6f8DULogj9dS
MEiPI2IYD91CLr2b2dyRbQ5gvLkb+ryLTM2HxIhaF+7LQQ/3lces6Zknqj2Oj4uh
HXHKw7KbT79G206k5+6teGdXCffH5SfXpk8DFljcixAcFBlz/q6es5UCgYEAtMe+
GlrPNvEDq+KF1Yo6d6QxEguGGXVB2IY+LNTZv/eCZRQcsDDxXDTPngVv2mDFsUS3
V9QwEJPtzqJyRMUw/i41BoPaVd+ay3fPAlOd5R9xQ7dQJnYaWc9NeY/G13RnKwBJ
vaHo+9EOtddq7XBECbQ/RLZmRgVPbANe0GmXXcUCgYAl7Kgz4kctKhSF/eJ6KCMo
diMhqfx41WFmhJjWygYpafK/BVT84zHswmz9HUGCN0BXXFxWlHXpU89mzSnvPZ8D
qtFzbMzzRIWo4u2mRVfv9LHGZ25iShFLVyZShCc6u1duV4EA9kKP8idPDp07zBOJ
/xFvT2WK8Lw3RTrOu/zcVQKBgQCoYYtNnNt4fxA+XuTtOqyulz4lYppqx+6msJLk
yvRueyj24L6/1TZZ/c6LjuDZ9FzueeSTZ83FAyPy3Re1uj2h4oP9J36LkZPqhBNK
RXvB14F14x5CVKrCj/XHjgVU1NTrFn+Yo2AQfG5JLPYpZfHZYAu2AnZMLdIF9zWu
xUr5SQKBgAGqHk+E0gC5quaiFppw3MoiYuOCFUeIHdGIUPIUObMBjlhoFhjzGroI
ni9rW8nsseUTekv/J6pTwXkan9FLnFzeMdmUWkvcytsKE4d/ojwq1M0LxDMkGdVM
/yf/S9H3XQl5CC0OHENa1kNWmBjxr8CVLIh2aDYsCibLA5d1q8nj
-----END RSA PRIVATE KEY-----
